; Function Attrs: nounwind uwtable
define ptr @l_Lean_Compiler_LCNF_ScopeM_addToScope(ptr noundef %0, ptr noundef %1, ptr readnone captures(none) %2, ptr readnone captures(none) %3, ptr readnone captures(none) %4, ptr readnone captures(none) %5, ptr noundef %6) local_unnamed_addr #0 {
  %8 = tail call ptr @lean_st_ref_take(ptr noundef %1, ptr noundef %6) #3
  %9 = getelementptr inbounds nuw i8, ptr %8, i64 8
  %10 = load ptr, ptr %9, align 8, !tbaa !9
  %11 = ptrtoint ptr %10 to i64
  %12 = and i64 %11, 1
  %.not = icmp eq i64 %12, 0
  br i1 %.not, label %13, label %lean_inc.exit29

13:                                               ; preds = %7
  %.val.i = load i32, ptr %10, align 4, !tbaa !4
  %14 = icmp sgt i32 %.val.i, 0
  br i1 %14, label %15, label %17, !prof !11

15:                                               ; preds = %13
  %16 = add nuw i32 %.val.i, 1
  store i32 %16, ptr %10, align 4, !tbaa !4
  br label %lean_inc.exit29

17:                                               ; preds = %13
  %.not.i36 = icmp eq i32 %.val.i, 0
  br i1 %.not.i36, label %lean_inc.exit29, label %18

18:                                               ; preds = %17
  tail call void @lean_inc_ref_cold(ptr noundef nonnull %10) #3
  br label %lean_inc.exit29

lean_inc.exit29:                                  ; preds = %18, %17, %15, %7
  %19 = getelementptr inbounds nuw i8, ptr %8, i64 16
  %20 = load ptr, ptr %19, align 8, !tbaa !9
  %21 = ptrtoint ptr %20 to i64
  %22 = and i64 %21, 1
  %.not43 = icmp eq i64 %22, 0
  br i1 %.not43, label %23, label %lean_inc.exit28

23:                                               ; preds = %lean_inc.exit29
  %.val.i37 = load i32, ptr %20, align 4, !tbaa !4
  %24 = icmp sgt i32 %.val.i37, 0
  br i1 %24, label %25, label %27, !prof !11

25:                                               ; preds = %23
  %26 = add nuw i32 %.val.i37, 1
  store i32 %26, ptr %20, align 4, !tbaa !4
  br label %lean_inc.exit28

27:                                               ; preds = %23
  %.not.i38 = icmp eq i32 %.val.i37, 0
  br i1 %.not.i38, label %lean_inc.exit28, label %28

28:                                               ; preds = %27
  tail call void @lean_inc_ref_cold(ptr noundef nonnull %20) #3
  br label %lean_inc.exit28

lean_inc.exit28:                                  ; preds = %28, %27, %25, %lean_inc.exit29
  %29 = ptrtoint ptr %8 to i64
  %30 = and i64 %29, 1
  %.not44 = icmp eq i64 %30, 0
  br i1 %.not44, label %31, label %lean_dec.exit31

31:                                               ; preds = %lean_inc.exit28
  %32 = load i32, ptr %8, align 4, !tbaa !4
  %33 = icmp sgt i32 %32, 1
  br i1 %33, label %34, label %36, !prof !11

34:                                               ; preds = %31
  %35 = add nsw i32 %32, -1
  store i32 %35, ptr %8, align 4, !tbaa !4
  br label %lean_dec.exit31

36:                                               ; preds = %31
  %.not.i = icmp eq i32 %32, 0
  br i1 %.not.i, label %lean_dec.exit31, label %37

37:                                               ; preds = %36
  tail call void @lean_dec_ref_cold(ptr noundef nonnull %8) #3
  br label %lean_dec.exit31

lean_dec.exit31:                                  ; preds = %37, %36, %34, %lean_inc.exit28
  %38 = tail call ptr @l_Lean_RBNode_insert___at_Lean_FVarIdSet_insert___spec__1(ptr noundef %10, ptr noundef %0, ptr noundef nonnull inttoptr (i64 1 to ptr)) #3
  %39 = tail call ptr @lean_st_ref_set(ptr noundef %1, ptr noundef %38, ptr noundef %20) #3
  %.val = load i32, ptr %39, align 4, !tbaa !4
  %40 = icmp eq i32 %.val, 1
  br i1 %40, label %41, label %53

41:                                               ; preds = %lean_dec.exit31
  %42 = getelementptr inbounds nuw i8, ptr %39, i64 8
  %43 = load ptr, ptr %42, align 8, !tbaa !9
  %44 = ptrtoint ptr %43 to i64
  %45 = and i64 %44, 1
  %.not47 = icmp eq i64 %45, 0
  br i1 %.not47, label %46, label %lean_dec.exit30

46:                                               ; preds = %41
  %47 = load i32, ptr %43, align 4, !tbaa !4
  %48 = icmp sgt i32 %47, 1
  br i1 %48, label %49, label %51, !prof !11

49:                                               ; preds = %46
  %50 = add nsw i32 %47, -1
  store i32 %50, ptr %43, align 4, !tbaa !4
  br label %lean_dec.exit30

51:                                               ; preds = %46
  %.not.i32 = icmp eq i32 %47, 0
  br i1 %.not.i32, label %lean_dec.exit30, label %52

52:                                               ; preds = %51
  tail call void @lean_dec_ref_cold(ptr noundef nonnull %43) #3
  br label %lean_dec.exit30

lean_dec.exit30:                                  ; preds = %52, %51, %49, %41
  store ptr inttoptr (i64 1 to ptr), ptr %42, align 8, !tbaa !9
  br label %79

53:                                               ; preds = %lean_dec.exit31
  %54 = getelementptr inbounds nuw i8, ptr %39, i64 16
  %55 = load ptr, ptr %54, align 8, !tbaa !9
  %56 = ptrtoint ptr %55 to i64
  %57 = and i64 %56, 1
  %.not45 = icmp eq i64 %57, 0
  br i1 %.not45, label %58, label %lean_inc.exit

58:                                               ; preds = %53
  %.val.i40 = load i32, ptr %55, align 4, !tbaa !4
  %59 = icmp sgt i32 %.val.i40, 0
  br i1 %59, label %60, label %62, !prof !11

60:                                               ; preds = %58
  %61 = add nuw i32 %.val.i40, 1
  store i32 %61, ptr %55, align 4, !tbaa !4
  br label %lean_inc.exit

62:                                               ; preds = %58
  %.not.i41 = icmp eq i32 %.val.i40, 0
  br i1 %.not.i41, label %lean_inc.exit, label %63

63:                                               ; preds = %62
  tail call void @lean_inc_ref_cold(ptr noundef nonnull %55) #3
  br label %lean_inc.exit

lean_inc.exit:                                    ; preds = %63, %62, %60, %53
  %64 = ptrtoint ptr %39 to i64
  %65 = and i64 %64, 1
  %.not46 = icmp eq i64 %65, 0
  br i1 %.not46, label %66, label %lean_dec.exit

66:                                               ; preds = %lean_inc.exit
  %67 = load i32, ptr %39, align 4, !tbaa !4
  %68 = icmp sgt i32 %67, 1
  br i1 %68, label %69, label %71, !prof !11

69:                                               ; preds = %66
  %70 = add nsw i32 %67, -1
  store i32 %70, ptr %39, align 4, !tbaa !4
  br label %lean_dec.exit

71:                                               ; preds = %66
  %.not.i34 = icmp eq i32 %67, 0
  br i1 %.not.i34, label %lean_dec.exit, label %72

72:                                               ; preds = %71
  tail call void @lean_dec_ref_cold(ptr noundef nonnull %39) #3
  br label %lean_dec.exit

lean_dec.exit:                                    ; preds = %72, %71, %69, %lean_inc.exit
  tail call void @lean_inc_heartbeat() #3
  %73 = tail call noalias ptr @mi_malloc_small(i64 noundef 24) #3
  %74 = icmp eq ptr %73, null
  br i1 %74, label %75, label %lean_alloc_ctor.exit

75:                                               ; preds = %lean_dec.exit
  tail call void @lean_internal_panic_out_of_memory() #4
  unreachable

lean_alloc_ctor.exit:                             ; preds = %lean_dec.exit
  %76 = getelementptr inbounds nuw i8, ptr %73, i64 4
  store i32 1, ptr %73, align 4, !tbaa !4
  store i32 131096, ptr %76, align 4
  %77 = getelementptr inbounds nuw i8, ptr %73, i64 8
  store ptr inttoptr (i64 1 to ptr), ptr %77, align 8, !tbaa !9
  %78 = getelementptr inbounds nuw i8, ptr %73, i64 16
  store ptr %55, ptr %78, align 8, !tbaa !9
  br label %79

79:                                               ; preds = %lean_alloc_ctor.exit, %lean_dec.exit30
  %.0 = phi ptr [ %39, %lean_dec.exit30 ], [ %73, %lean_alloc_ctor.exit ]
  ret ptr %.0
}